target datalayout = "e-m:e-p270:32:32-p271:32:32-p272:64:64-i64:64-i128:128-f80:128-n8:16:32:64-S128"
target triple = "x86_64-pc-linux-gnu"

%class.Dependencies = type { ptr, [9 x ptr], i8, [9 x ptr], ptr, ptr, ptr, i64 }
%class.GrowableArrayBase = type { i32, i32 }

; Function Attrs: mustprogress nounwind uwtable
define linkonce_odr hidden noundef i32 @_ZNK17GrowableArrayBase6lengthEv(ptr noundef nonnull align 4 dereferenceable(8) %0) #1 comdat align 2 {
  %2 = alloca ptr, align 8
  store ptr %0, ptr %2, align 8
  %3 = load ptr, ptr %2, align 8
  %4 = getelementptr inbounds %class.GrowableArrayBase, ptr %3, i32 0, i32 0
  %5 = load i32, ptr %4, align 4
  ret i32 %5
}

; Function Attrs: mustprogress nounwind uwtable
define hidden noundef i64 @_ZN12Dependencies22estimate_size_in_bytesEv(ptr noundef nonnull align 8 dereferenceable(192) %0) #1 align 2 {
  %2 = alloca i64, align 8
  %3 = alloca ptr, align 8
  %4 = alloca i64, align 8
  %5 = alloca i32, align 4
  %6 = alloca i32, align 4
  %7 = alloca ptr, align 8
  %8 = alloca i32, align 4
  %9 = alloca i32, align 4
  %10 = alloca ptr, align 8
  store ptr %0, ptr %3, align 8
  %11 = load ptr, ptr %3, align 8
  store i64 100, ptr %4, align 8
  %12 = getelementptr inbounds %class.Dependencies, ptr %11, i32 0, i32 2
  %13 = load i8, ptr %12, align 8
  %14 = trunc i8 %13 to i1
  br i1 %14, label %15, label %37

15:                                               ; preds = %1
  store i32 1, ptr %5, align 4
  br label %16

16:                                               ; preds = %32, %15
  %17 = load i32, ptr %5, align 4
  %18 = icmp slt i32 %17, 9
  br i1 %18, label %19, label %35

19:                                               ; preds = %16
  %20 = load i32, ptr %5, align 4
  store i32 %20, ptr %6, align 4
  %21 = getelementptr inbounds %class.Dependencies, ptr %11, i32 0, i32 3
  %22 = load i32, ptr %6, align 4
  %23 = zext i32 %22 to i64
  %24 = getelementptr inbounds [9 x ptr], ptr %21, i64 0, i64 %23
  %25 = load ptr, ptr %24, align 8
  store ptr %25, ptr %7, align 8
  %26 = load ptr, ptr %7, align 8
  %27 = call noundef i32 @_ZNK17GrowableArrayBase6lengthEv(ptr noundef nonnull align 4 dereferenceable(8) %26)
  %28 = mul nsw i32 %27, 2
  %29 = sext i32 %28 to i64
  %30 = load i64, ptr %4, align 8
  %31 = add i64 %30, %29
  store i64 %31, ptr %4, align 8
  br label %32

32:                                               ; preds = %19
  %33 = load i32, ptr %5, align 4
  %34 = add nsw i32 %33, 1
  store i32 %34, ptr %5, align 4
  br label %16, !llvm.loop !16

35:                                               ; preds = %16
  %36 = load i64, ptr %4, align 8
  store i64 %36, ptr %2, align 8
  br label %59

37:                                               ; preds = %1
  store i32 1, ptr %8, align 4
  br label %38

38:                                               ; preds = %54, %37
  %39 = load i32, ptr %8, align 4
  %40 = icmp slt i32 %39, 9
  br i1 %40, label %41, label %57

41:                                               ; preds = %38
  %42 = load i32, ptr %8, align 4
  store i32 %42, ptr %9, align 4
  %43 = getelementptr inbounds %class.Dependencies, ptr %11, i32 0, i32 1
  %44 = load i32, ptr %9, align 4
  %45 = zext i32 %44 to i64
  %46 = getelementptr inbounds [9 x ptr], ptr %43, i64 0, i64 %45
  %47 = load ptr, ptr %46, align 8
  store ptr %47, ptr %10, align 8
  %48 = load ptr, ptr %10, align 8
  %49 = call noundef i32 @_ZNK17GrowableArrayBase6lengthEv(ptr noundef nonnull align 4 dereferenceable(8) %48)
  %50 = mul nsw i32 %49, 2
  %51 = sext i32 %50 to i64
  %52 = load i64, ptr %4, align 8
  %53 = add i64 %52, %51
  store i64 %53, ptr %4, align 8
  br label %54

54:                                               ; preds = %41
  %55 = load i32, ptr %8, align 4
  %56 = add nsw i32 %55, 1
  store i32 %56, ptr %8, align 4
  br label %38, !llvm.loop !17

57:                                               ; preds = %38
  %58 = load i64, ptr %4, align 8
  store i64 %58, ptr %2, align 8
  br label %59

59:                                               ; preds = %57, %35
  %60 = load i64, ptr %2, align 8
  ret i64 %60
}