; Function Attrs: mustprogress nofree norecurse nosync nounwind willreturn memory(read, inaccessiblemem: none) uwtable
define hidden noundef i64 @_ZN12Dependencies22estimate_size_in_bytesEv(ptr nocapture noundef nonnull readonly align 8 dereferenceable(192) %0) local_unnamed_addr #6 align 2 {
  %2 = getelementptr inbounds i8, ptr %0, i64 80
  %3 = load i8, ptr %2, align 8
  %4 = trunc i8 %3 to i1
  br i1 %4, label %.preheader, label %.preheader18

.preheader18:                                     ; preds = %1
  %5 = getelementptr inbounds i8, ptr %0, i64 8
  br label %14

.preheader:                                       ; preds = %1
  %6 = getelementptr inbounds i8, ptr %0, i64 88
  br label %7

7:                                                ; preds = %.preheader, %7
  %indvars.iv27 = phi i64 [ 1, %.preheader ], [ %indvars.iv.next28, %7 ]
  %.01523 = phi i64 [ 100, %.preheader ], [ %13, %7 ]
  %8 = getelementptr inbounds [9 x ptr], ptr %6, i64 0, i64 %indvars.iv27
  %9 = load ptr, ptr %8, align 8
  %10 = load i32, ptr %9, align 4
  %11 = shl nsw i32 %10, 1
  %12 = sext i32 %11 to i64
  %13 = add i64 %.01523, %12
  %indvars.iv.next28 = add nuw nsw i64 %indvars.iv27, 1
  %exitcond30.not = icmp eq i64 %indvars.iv.next28, 9
  br i1 %exitcond30.not, label %.loopexit, label %7, !llvm.loop !19

14:                                               ; preds = %.preheader18, %14
  %indvars.iv = phi i64 [ 1, %.preheader18 ], [ %indvars.iv.next, %14 ]
  %.121 = phi i64 [ 100, %.preheader18 ], [ %20, %14 ]
  %15 = getelementptr inbounds [9 x ptr], ptr %5, i64 0, i64 %indvars.iv
  %16 = load ptr, ptr %15, align 8
  %17 = load i32, ptr %16, align 4
  %18 = shl nsw i32 %17, 1
  %19 = sext i32 %18 to i64
  %20 = add i64 %.121, %19
  %indvars.iv.next = add nuw nsw i64 %indvars.iv, 1
  %exitcond.not = icmp eq i64 %indvars.iv.next, 9
  br i1 %exitcond.not, label %.loopexit, label %14, !llvm.loop !20

.loopexit:                                        ; preds = %14, %7
  %.0 = phi i64 [ %13, %7 ], [ %20, %14 ]
  ret i64 %.0
}